target datalayout = "e-m:e-p270:32:32-p271:32:32-p272:64:64-i64:64-i128:128-f80:128-n8:16:32:64-S128"
target triple = "x86_64-pc-linux-gnu"

; Function Attrs: inlinehint mustprogress uwtable
define linkonce_odr hidden noundef zeroext i1 @_ZN7Imf_3_48StreamIO9readCharsERNS_7IStreamEPci(ptr noundef nonnull align 8 dereferenceable(40) %0, ptr noundef %1, i32 noundef %2) #8 comdat align 2 {
  %4 = alloca ptr, align 8
  %5 = alloca ptr, align 8
  %6 = alloca i32, align 4
  store ptr %0, ptr %4, align 8, !tbaa !21
  store ptr %1, ptr %5, align 8, !tbaa !3
  store i32 %2, ptr %6, align 4, !tbaa !10
  %7 = load ptr, ptr %4, align 8, !tbaa !21
  %8 = load ptr, ptr %5, align 8, !tbaa !3
  %9 = load i32, ptr %6, align 4, !tbaa !10
  %10 = load ptr, ptr %7, align 8, !tbaa !23
  %11 = getelementptr inbounds ptr, ptr %10, i64 3
  %12 = load ptr, ptr %11, align 8
  %13 = call noundef zeroext i1 %12(ptr noundef nonnull align 8 dereferenceable(40) %7, ptr noundef %8, i32 noundef %9)
  ret i1 %13
}

; Function Attrs: inlinehint mustprogress uwtable
define linkonce_odr hidden void @_ZN7Imf_3_43Xdr15readSignedCharsINS_8StreamIOENS_7IStreamEEEvRT0_Pai(ptr noundef nonnull align 8 dereferenceable(40) %0, ptr noundef %1, i32 noundef %2) #8 comdat {
  %4 = alloca ptr, align 8
  %5 = alloca ptr, align 8
  %6 = alloca i32, align 4
  store ptr %0, ptr %4, align 8, !tbaa !21
  store ptr %1, ptr %5, align 8, !tbaa !3
  store i32 %2, ptr %6, align 4, !tbaa !10
  %7 = load ptr, ptr %4, align 8, !tbaa !21
  %8 = load ptr, ptr %5, align 8, !tbaa !3
  %9 = load i32, ptr %6, align 4, !tbaa !10
  %10 = call noundef zeroext i1 @_ZN7Imf_3_48StreamIO9readCharsERNS_7IStreamEPci(ptr noundef nonnull align 8 dereferenceable(40) %7, ptr noundef %8, i32 noundef %9)
  ret void
}

; Function Attrs: inlinehint mustprogress nounwind uwtable
define linkonce_odr hidden noundef zeroext i1 @_ZN7Imf_3_411isMultiPartEi(i32 noundef %0) #6 comdat {
  %2 = alloca i32, align 4
  store i32 %0, ptr %2, align 4, !tbaa !10
  %3 = load i32, ptr %2, align 4, !tbaa !10
  %4 = and i32 %3, 4096
  %5 = icmp ne i32 %4, 0
  %6 = xor i1 %5, true
  %7 = xor i1 %6, true
  ret i1 %7
}

; Function Attrs: inlinehint mustprogress nounwind uwtable
define linkonce_odr hidden noundef zeroext i1 @_ZN7Imf_3_410isNonImageEi(i32 noundef %0) #6 comdat {
  %2 = alloca i32, align 4
  store i32 %0, ptr %2, align 4, !tbaa !10
  %3 = load i32, ptr %2, align 4, !tbaa !10
  %4 = and i32 %3, 2048
  %5 = icmp ne i32 %4, 0
  %6 = xor i1 %5, true
  %7 = xor i1 %6, true
  ret i1 %7
}

; Function Attrs: inlinehint mustprogress nounwind uwtable
define linkonce_odr hidden noundef zeroext i1 @_ZN7Imf_3_47isTiledEi(i32 noundef %0) #6 comdat {
  %2 = alloca i32, align 4
  store i32 %0, ptr %2, align 4, !tbaa !10
  %3 = load i32, ptr %2, align 4, !tbaa !10
  %4 = and i32 %3, 512
  %5 = icmp ne i32 %4, 0
  %6 = xor i1 %5, true
  %7 = xor i1 %6, true
  ret i1 %7
}

; Function Attrs: mustprogress uwtable
define linkonce_odr hidden void @_ZN7Imf_3_43Xdr4readINS_8StreamIOENS_7IStreamEEEvRT0_Ri(ptr noundef nonnull align 8 dereferenceable(40) %0, ptr noundef nonnull align 4 dereferenceable(4) %1) #4 comdat {
  %3 = alloca ptr, align 8
  %4 = alloca ptr, align 8
  %5 = alloca [4 x i8], align 1
  store ptr %0, ptr %3, align 8, !tbaa !21
  store ptr %1, ptr %4, align 8, !tbaa !16
  call void @llvm.lifetime.start.p0(i64 4, ptr %5) #3
  %6 = load ptr, ptr %3, align 8, !tbaa !21
  %7 = getelementptr inbounds [4 x i8], ptr %5, i64 0, i64 0
  call void @_ZN7Imf_3_43Xdr15readSignedCharsINS_8StreamIOENS_7IStreamEEEvRT0_Pai(ptr noundef nonnull align 8 dereferenceable(40) %6, ptr noundef %7, i32 noundef 4)
  %8 = getelementptr inbounds [4 x i8], ptr %5, i64 0, i64 0
  %9 = load i8, ptr %8, align 1, !tbaa !18
  %10 = zext i8 %9 to i32
  %11 = and i32 %10, 255
  %12 = getelementptr inbounds [4 x i8], ptr %5, i64 0, i64 1
  %13 = load i8, ptr %12, align 1, !tbaa !18
  %14 = zext i8 %13 to i32
  %15 = shl i32 %14, 8
  %16 = and i32 %15, 65280
  %17 = or i32 %11, %16
  %18 = getelementptr inbounds [4 x i8], ptr %5, i64 0, i64 2
  %19 = load i8, ptr %18, align 1, !tbaa !18
  %20 = zext i8 %19 to i32
  %21 = shl i32 %20, 16
  %22 = and i32 %21, 16711680
  %23 = or i32 %17, %22
  %24 = getelementptr inbounds [4 x i8], ptr %5, i64 0, i64 3
  %25 = load i8, ptr %24, align 1, !tbaa !18
  %26 = zext i8 %25 to i32
  %27 = shl i32 %26, 24
  %28 = or i32 %23, %27
  %29 = load ptr, ptr %4, align 8, !tbaa !16
  store i32 %28, ptr %29, align 4, !tbaa !10
  call void @llvm.lifetime.end.p0(i64 4, ptr %5) #3
  ret void
}

; Function Attrs: mustprogress uwtable
define noundef zeroext i1 @_ZN7Imf_3_413isOpenExrFileERNS_7IStreamERbS2_S2_(ptr noundef nonnull align 8 dereferenceable(40) %0, ptr noundef nonnull align 1 dereferenceable(1) %1, ptr noundef nonnull align 1 dereferenceable(1) %2, ptr noundef nonnull align 1 dereferenceable(1) %3) #4 personality ptr @__gxx_personality_v0 {
  %5 = alloca i1, align 1
  %6 = alloca ptr, align 8
  %7 = alloca ptr, align 8
  %8 = alloca ptr, align 8
  %9 = alloca ptr, align 8
  %10 = alloca i64, align 8
  %11 = alloca ptr, align 8
  %12 = alloca i32, align 4
  %13 = alloca i32, align 4
  %14 = alloca i32, align 4
  store ptr %0, ptr %6, align 8, !tbaa !21
  store ptr %1, ptr %7, align 8, !tbaa !8
  store ptr %2, ptr %8, align 8, !tbaa !8
  store ptr %3, ptr %9, align 8, !tbaa !8
  call void @llvm.lifetime.start.p0(i64 8, ptr %10) #3
  %15 = load ptr, ptr %6, align 8, !tbaa !21
  %16 = load ptr, ptr %15, align 8, !tbaa !23
  %17 = getelementptr inbounds ptr, ptr %16, i64 5
  %18 = load ptr, ptr %17, align 8
  %19 = invoke noundef i64 %18(ptr noundef nonnull align 8 dereferenceable(40) %15)
          to label %20 unwind label %29

20:                                               ; preds = %4
  store i64 %19, ptr %10, align 8, !tbaa !25
  %21 = load i64, ptr %10, align 8, !tbaa !25
  %22 = icmp ne i64 %21, 0
  br i1 %22, label %23, label %33

23:                                               ; preds = %20
  %24 = load ptr, ptr %6, align 8, !tbaa !21
  %25 = load ptr, ptr %24, align 8, !tbaa !23
  %26 = getelementptr inbounds ptr, ptr %25, i64 6
  %27 = load ptr, ptr %26, align 8
  invoke void %27(ptr noundef nonnull align 8 dereferenceable(40) %24, i64 noundef 0)
          to label %28 unwind label %29

28:                                               ; preds = %23
  br label %33

29:                                               ; preds = %23, %4
  %30 = landingpad { ptr, i32 }
          catch ptr null
  %31 = extractvalue { ptr, i32 } %30, 0
  store ptr %31, ptr %11, align 8
  %32 = extractvalue { ptr, i32 } %30, 1
  store i32 %32, ptr %12, align 4
  br label %65

33:                                               ; preds = %28, %20
  call void @llvm.lifetime.start.p0(i64 4, ptr %13) #3
  call void @llvm.lifetime.start.p0(i64 4, ptr %14) #3
  %34 = load ptr, ptr %6, align 8, !tbaa !21
  invoke void @_ZN7Imf_3_43Xdr4readINS_8StreamIOENS_7IStreamEEEvRT0_Ri(ptr noundef nonnull align 8 dereferenceable(40) %34, ptr noundef nonnull align 4 dereferenceable(4) %13)
          to label %35 unwind label %61

35:                                               ; preds = %33
  %36 = load ptr, ptr %6, align 8, !tbaa !21
  invoke void @_ZN7Imf_3_43Xdr4readINS_8StreamIOENS_7IStreamEEEvRT0_Ri(ptr noundef nonnull align 8 dereferenceable(40) %36, ptr noundef nonnull align 4 dereferenceable(4) %14)
          to label %37 unwind label %61

37:                                               ; preds = %35
  %38 = load ptr, ptr %6, align 8, !tbaa !21
  %39 = load i64, ptr %10, align 8, !tbaa !25
  %40 = load ptr, ptr %38, align 8, !tbaa !23
  %41 = getelementptr inbounds ptr, ptr %40, i64 6
  %42 = load ptr, ptr %41, align 8
  invoke void %42(ptr noundef nonnull align 8 dereferenceable(40) %38, i64 noundef %39)
          to label %43 unwind label %61

43:                                               ; preds = %37
  %44 = load i32, ptr %14, align 4, !tbaa !10
  %45 = invoke noundef zeroext i1 @_ZN7Imf_3_47isTiledEi(i32 noundef %44)
          to label %46 unwind label %61

46:                                               ; preds = %43
  %47 = load ptr, ptr %7, align 8, !tbaa !8
  %48 = zext i1 %45 to i8
  store i8 %48, ptr %47, align 1, !tbaa !12
  %49 = load i32, ptr %14, align 4, !tbaa !10
  %50 = invoke noundef zeroext i1 @_ZN7Imf_3_410isNonImageEi(i32 noundef %49)
          to label %51 unwind label %61

51:                                               ; preds = %46
  %52 = load ptr, ptr %8, align 8, !tbaa !8
  %53 = zext i1 %50 to i8
  store i8 %53, ptr %52, align 1, !tbaa !12
  %54 = load i32, ptr %14, align 4, !tbaa !10
  %55 = invoke noundef zeroext i1 @_ZN7Imf_3_411isMultiPartEi(i32 noundef %54)
          to label %56 unwind label %61

56:                                               ; preds = %51
  %57 = load ptr, ptr %9, align 8, !tbaa !8
  %58 = zext i1 %55 to i8
  store i8 %58, ptr %57, align 1, !tbaa !12
  %59 = load i32, ptr %13, align 4, !tbaa !10
  %60 = icmp eq i32 %59, 20000630
  store i1 %60, ptr %5, align 1
  call void @llvm.lifetime.end.p0(i64 4, ptr %14) #3
  call void @llvm.lifetime.end.p0(i64 4, ptr %13) #3
  call void @llvm.lifetime.end.p0(i64 8, ptr %10) #3
  br label %81

61:                                               ; preds = %51, %46, %43, %37, %35, %33
  %62 = landingpad { ptr, i32 }
          catch ptr null
  %63 = extractvalue { ptr, i32 } %62, 0
  store ptr %63, ptr %11, align 8
  %64 = extractvalue { ptr, i32 } %62, 1
  store i32 %64, ptr %12, align 4
  call void @llvm.lifetime.end.p0(i64 4, ptr %14) #3
  call void @llvm.lifetime.end.p0(i64 4, ptr %13) #3
  br label %65

65:                                               ; preds = %61, %29
  call void @llvm.lifetime.end.p0(i64 8, ptr %10) #3
  br label %66

66:                                               ; preds = %65
  %67 = load ptr, ptr %11, align 8
  %68 = call ptr @__cxa_begin_catch(ptr %67) #3
  %69 = load ptr, ptr %6, align 8, !tbaa !21
  %70 = load ptr, ptr %69, align 8, !tbaa !23
  %71 = getelementptr inbounds ptr, ptr %70, i64 7
  %72 = load ptr, ptr %71, align 8
  invoke void %72(ptr noundef nonnull align 8 dereferenceable(40) %69)
          to label %73 unwind label %75

73:                                               ; preds = %66
  %74 = load ptr, ptr %7, align 8, !tbaa !8
  store i8 0, ptr %74, align 1, !tbaa !12
  store i1 false, ptr %5, align 1
  call void @__cxa_end_catch()
  br label %81

75:                                               ; preds = %66
  %76 = landingpad { ptr, i32 }
          cleanup
  %77 = extractvalue { ptr, i32 } %76, 0
  store ptr %77, ptr %11, align 8
  %78 = extractvalue { ptr, i32 } %76, 1
  store i32 %78, ptr %12, align 4
  invoke void @__cxa_end_catch()
          to label %79 unwind label %88

79:                                               ; preds = %75
  br label %83

80:                                               ; No predecessors!
  unreachable

81:                                               ; preds = %73, %56
  %82 = load i1, ptr %5, align 1
  ret i1 %82

83:                                               ; preds = %79
  %84 = load ptr, ptr %11, align 8
  %85 = load i32, ptr %12, align 4
  %86 = insertvalue { ptr, i32 } poison, ptr %84, 0
  %87 = insertvalue { ptr, i32 } %86, i32 %85, 1
  resume { ptr, i32 } %87

88:                                               ; preds = %75
  %89 = landingpad { ptr, i32 }
          catch ptr null
  %90 = extractvalue { ptr, i32 } %89, 0
  call void @__clang_call_terminate(ptr %90) #9
  unreachable
}