; Function Attrs: mustprogress uwtable
define noundef zeroext i1 @_ZN7Imf_3_413isOpenExrFileERNS_7IStreamERbS2_S2_(ptr noundef nonnull align 8 dereferenceable(40) %0, ptr noundef nonnull writeonly align 1 captures(none) dereferenceable(1) %1, ptr noundef nonnull writeonly align 1 captures(none) dereferenceable(1) %2, ptr noundef nonnull writeonly align 1 captures(none) dereferenceable(1) %3) local_unnamed_addr #3 personality ptr @__gxx_personality_v0 {
  %5 = alloca [4 x i8], align 4
  %6 = alloca [4 x i8], align 4
  %7 = load ptr, ptr %0, align 8, !tbaa !3
  %8 = getelementptr inbounds nuw i8, ptr %7, i64 40
  %9 = load ptr, ptr %8, align 8
  %10 = invoke noundef i64 %9(ptr noundef nonnull align 8 dereferenceable(40) %0)
          to label %11 unwind label %16

11:                                               ; preds = %4
  %.not = icmp eq i64 %10, 0
  br i1 %.not, label %18, label %12

12:                                               ; preds = %11
  %13 = load ptr, ptr %0, align 8, !tbaa !3
  %14 = getelementptr inbounds nuw i8, ptr %13, i64 48
  %15 = load ptr, ptr %14, align 8
  invoke void %15(ptr noundef nonnull align 8 dereferenceable(40) %0, i64 noundef 0)
          to label %18 unwind label %16

16:                                               ; preds = %12, %4
  %17 = landingpad { ptr, i32 }
          catch ptr null
  br label %47

18:                                               ; preds = %12, %11
  call void @llvm.lifetime.start.p0(i64 4, ptr nonnull %6) #8
  %19 = load ptr, ptr %0, align 8, !tbaa !3
  %20 = getelementptr inbounds nuw i8, ptr %19, i64 24
  %21 = load ptr, ptr %20, align 8
  %22 = invoke noundef zeroext i1 %21(ptr noundef nonnull align 8 dereferenceable(40) %0, ptr noundef nonnull %6, i32 noundef 4)
          to label %23 unwind label %45

23:                                               ; preds = %18
  %24 = load i32, ptr %6, align 4
  call void @llvm.lifetime.end.p0(i64 4, ptr nonnull %6) #8
  call void @llvm.lifetime.start.p0(i64 4, ptr nonnull %5) #8
  %25 = load ptr, ptr %0, align 8, !tbaa !3
  %26 = getelementptr inbounds nuw i8, ptr %25, i64 24
  %27 = load ptr, ptr %26, align 8
  %28 = invoke noundef zeroext i1 %27(ptr noundef nonnull align 8 dereferenceable(40) %0, ptr noundef nonnull %5, i32 noundef 4)
          to label %29 unwind label %45

29:                                               ; preds = %23
  %30 = load i32, ptr %5, align 4
  call void @llvm.lifetime.end.p0(i64 4, ptr nonnull %5) #8
  %31 = load ptr, ptr %0, align 8, !tbaa !3
  %32 = getelementptr inbounds nuw i8, ptr %31, i64 48
  %33 = load ptr, ptr %32, align 8
  invoke void %33(ptr noundef nonnull align 8 dereferenceable(40) %0, i64 noundef %10)
          to label %34 unwind label %45

34:                                               ; preds = %29
  %35 = lshr i32 %30, 9
  %36 = trunc i32 %35 to i8
  %37 = and i8 %36, 1
  store i8 %37, ptr %1, align 1, !tbaa !6
  %38 = lshr i32 %30, 11
  %39 = trunc i32 %38 to i8
  %40 = and i8 %39, 1
  store i8 %40, ptr %2, align 1, !tbaa !6
  %41 = lshr i32 %30, 12
  %42 = trunc i32 %41 to i8
  %43 = and i8 %42, 1
  store i8 %43, ptr %3, align 1, !tbaa !6
  %44 = icmp eq i32 %24, 20000630
  br label %55

45:                                               ; preds = %23, %18, %29
  %46 = landingpad { ptr, i32 }
          catch ptr null
  br label %47

47:                                               ; preds = %45, %16
  %.pn = phi { ptr, i32 } [ %46, %45 ], [ %17, %16 ]
  %.0 = extractvalue { ptr, i32 } %.pn, 0
  %48 = call ptr @__cxa_begin_catch(ptr %.0) #8
  %49 = load ptr, ptr %0, align 8, !tbaa !3
  %50 = getelementptr inbounds nuw i8, ptr %49, i64 56
  %51 = load ptr, ptr %50, align 8
  invoke void %51(ptr noundef nonnull align 8 dereferenceable(40) %0)
          to label %52 unwind label %53

52:                                               ; preds = %47
  store i8 0, ptr %1, align 1, !tbaa !6
  call void @__cxa_end_catch()
  br label %55

53:                                               ; preds = %47
  %54 = landingpad { ptr, i32 }
          cleanup
  invoke void @__cxa_end_catch()
          to label %56 unwind label %57

55:                                               ; preds = %52, %34
  %.015 = phi i1 [ %44, %34 ], [ false, %52 ]
  ret i1 %.015

56:                                               ; preds = %53
  resume { ptr, i32 } %54

57:                                               ; preds = %53
  %58 = landingpad { ptr, i32 }
          catch ptr null
  %59 = extractvalue { ptr, i32 } %58, 0
  call void @__clang_call_terminate(ptr %59) #9
  unreachable
}